target datalayout = "e-m:e-p270:32:32-p271:32:32-p272:64:64-i64:64-i128:128-f80:128-n8:16:32:64-S128"
target triple = "x86_64-pc-linux-gnu"

%struct.lua_State = type { %struct.GCRef, i8, i8, i8, i8, %struct.MRef, %struct.GCRef, ptr, ptr, %struct.MRef, %struct.MRef, %struct.GCRef, %struct.GCRef, ptr, i32 }
%struct.MRef = type { i64 }
%struct.GCRef = type { i64 }
%struct.GCstr = type { %struct.GCRef, i8, i8, i8, i8, i32, i32, i32 }

; Function Attrs: nounwind uwtable
define internal i32 @lj_cf_jit_profile_dumpstack(ptr noundef %0) #0 {
  %2 = alloca ptr, align 8
  %3 = alloca ptr, align 8
  %4 = alloca i32, align 4
  %5 = alloca i64, align 8
  %6 = alloca i32, align 4
  %7 = alloca ptr, align 8
  %8 = alloca ptr, align 8
  store ptr %0, ptr %2, align 8, !tbaa !4
  call void @llvm.lifetime.start.p0(i64 8, ptr %3) #9
  %9 = load ptr, ptr %2, align 8, !tbaa !4
  store ptr %9, ptr %3, align 8, !tbaa !4
  call void @llvm.lifetime.start.p0(i64 4, ptr %4) #9
  store i32 0, ptr %4, align 4, !tbaa !35
  call void @llvm.lifetime.start.p0(i64 8, ptr %5) #9
  call void @llvm.lifetime.start.p0(i64 4, ptr %6) #9
  call void @llvm.lifetime.start.p0(i64 8, ptr %7) #9
  call void @llvm.lifetime.start.p0(i64 8, ptr %8) #9
  %10 = load ptr, ptr %2, align 8, !tbaa !4
  %11 = getelementptr inbounds nuw %struct.lua_State, ptr %10, i32 0, i32 8
  %12 = load ptr, ptr %11, align 8, !tbaa !16
  %13 = load ptr, ptr %2, align 8, !tbaa !4
  %14 = getelementptr inbounds nuw %struct.lua_State, ptr %13, i32 0, i32 7
  %15 = load ptr, ptr %14, align 8, !tbaa !36
  %16 = icmp ugt ptr %12, %15
  br i1 %16, label %17, label %33

17:                                               ; preds = %1
  %18 = load ptr, ptr %2, align 8, !tbaa !4
  %19 = getelementptr inbounds nuw %struct.lua_State, ptr %18, i32 0, i32 7
  %20 = load ptr, ptr %19, align 8, !tbaa !36
  %21 = load i64, ptr %20, align 8, !tbaa !37
  %22 = ashr i64 %21, 47
  %23 = trunc i64 %22 to i32
  %24 = icmp eq i32 %23, -7
  br i1 %24, label %25, label %33

25:                                               ; preds = %17
  %26 = load ptr, ptr %2, align 8, !tbaa !4
  %27 = getelementptr inbounds nuw %struct.lua_State, ptr %26, i32 0, i32 7
  %28 = load ptr, ptr %27, align 8, !tbaa !36
  %29 = getelementptr inbounds nuw %struct.GCRef, ptr %28, i32 0, i32 0
  %30 = load i64, ptr %29, align 8, !tbaa !37
  %31 = and i64 %30, 140737488355327
  %32 = inttoptr i64 %31 to ptr
  store ptr %32, ptr %3, align 8, !tbaa !4
  store i32 1, ptr %4, align 4, !tbaa !35
  br label %33

33:                                               ; preds = %25, %17, %1
  %34 = load ptr, ptr %2, align 8, !tbaa !4
  %35 = load i32, ptr %4, align 4, !tbaa !35
  %36 = add nsw i32 %35, 1
  %37 = call ptr @lj_lib_checkstr(ptr noundef %34, i32 noundef %36)
  store ptr %37, ptr %7, align 8, !tbaa !39
  %38 = load ptr, ptr %2, align 8, !tbaa !4
  %39 = load i32, ptr %4, align 4, !tbaa !35
  %40 = add nsw i32 %39, 2
  %41 = call i32 @lj_lib_checkint(ptr noundef %38, i32 noundef %40)
  store i32 %41, ptr %6, align 4, !tbaa !35
  %42 = load ptr, ptr %3, align 8, !tbaa !4
  %43 = load ptr, ptr %7, align 8, !tbaa !39
  %44 = getelementptr inbounds %struct.GCstr, ptr %43, i64 1
  %45 = load i32, ptr %6, align 4, !tbaa !35
  %46 = call ptr @luaJIT_profile_dumpstack(ptr noundef %42, ptr noundef %44, i32 noundef %45, ptr noundef %5)
  store ptr %46, ptr %8, align 8, !tbaa !41
  %47 = load ptr, ptr %2, align 8, !tbaa !4
  %48 = load ptr, ptr %8, align 8, !tbaa !41
  %49 = load i64, ptr %5, align 8, !tbaa !61
  call void @lua_pushlstring(ptr noundef %47, ptr noundef %48, i64 noundef %49)
  call void @llvm.lifetime.end.p0(i64 8, ptr %8) #9
  call void @llvm.lifetime.end.p0(i64 8, ptr %7) #9
  call void @llvm.lifetime.end.p0(i64 4, ptr %6) #9
  call void @llvm.lifetime.end.p0(i64 8, ptr %5) #9
  call void @llvm.lifetime.end.p0(i64 4, ptr %4) #9
  call void @llvm.lifetime.end.p0(i64 8, ptr %3) #9
  ret i32 1
}