; Function Attrs: nounwind uwtable
define internal noundef i32 @lj_cf_jit_profile_dumpstack(ptr noundef %0) #0 {
  %2 = alloca i64, align 8
  call void @llvm.lifetime.start.p0(i64 8, ptr nonnull %2) #8
  %3 = getelementptr inbounds nuw i8, ptr %0, i64 40
  %4 = load ptr, ptr %3, align 8, !tbaa !32
  %5 = getelementptr inbounds nuw i8, ptr %0, i64 32
  %6 = load ptr, ptr %5, align 8, !tbaa !33
  %7 = icmp ugt ptr %4, %6
  br i1 %7, label %8, label %14

8:                                                ; preds = %1
  %9 = load i64, ptr %6, align 8, !tbaa !34
  %.mask = and i64 %9, -140737488355328
  %10 = icmp eq i64 %.mask, -985162418487296
  br i1 %10, label %11, label %14

11:                                               ; preds = %8
  %12 = and i64 %9, 140737488355327
  %13 = inttoptr i64 %12 to ptr
  br label %14

14:                                               ; preds = %11, %8, %1
  %.013 = phi i32 [ 1, %11 ], [ 0, %8 ], [ 0, %1 ]
  %.0 = phi ptr [ %13, %11 ], [ %0, %8 ], [ %0, %1 ]
  %15 = add nuw nsw i32 %.013, 1
  %16 = tail call ptr @lj_lib_checkstr(ptr noundef nonnull %0, i32 noundef %15) #8
  %17 = or disjoint i32 %.013, 2
  %18 = tail call i32 @lj_lib_checkint(ptr noundef nonnull %0, i32 noundef %17) #8
  %19 = getelementptr inbounds nuw i8, ptr %16, i64 24
  %20 = call ptr @luaJIT_profile_dumpstack(ptr noundef %.0, ptr noundef nonnull %19, i32 noundef %18, ptr noundef nonnull %2) #8
  %21 = load i64, ptr %2, align 8, !tbaa !53
  call void @lua_pushlstring(ptr noundef nonnull %0, ptr noundef %20, i64 noundef %21) #8
  call void @llvm.lifetime.end.p0(i64 8, ptr nonnull %2) #8
  ret i32 1
}